; Function Attrs: mustprogress nounwind uwtable
define hidden noundef zeroext i1 @_ZN21LoaderConstraintTable15check_or_updateEP13InstanceKlassP15ClassLoaderDataP6Symbol(ptr noundef %0, ptr noundef %1, ptr noundef %2) local_unnamed_addr #0 align 2 {
  %4 = tail call noundef ptr @_ZN21LoaderConstraintTable22find_loader_constraintEP6SymbolP15ClassLoaderData(ptr noundef %2, ptr noundef %1)
  %.not = icmp eq ptr %4, null
  br i1 %.not, label %.critedge, label %5

5:                                                ; preds = %3
  %6 = load ptr, ptr %4, align 8
  %.not16 = icmp eq ptr %6, null
  br i1 %.not16, label %30, label %7

7:                                                ; preds = %5
  %.not17 = icmp eq ptr %6, %0
  br i1 %.not17, label %.critedge, label %8

8:                                                ; preds = %7
  %9 = load volatile ptr, ptr getelementptr inbounds (i8, ptr @_ZN16LogTagSetMappingILN6LogTag4typeE16ELS1_75ELS1_24ELS1_0ELS1_0ELS1_0EE7_tagsetE, i64 64), align 8
  %.not32 = icmp eq ptr %9, null
  br i1 %.not32, label %.critedge, label %10

10:                                               ; preds = %8
  %11 = tail call align 8 ptr @llvm.threadlocal.address.p0(ptr align 8 @_ZN6Thread12_thr_currentE)
  %12 = load ptr, ptr %11, align 8
  %13 = getelementptr inbounds i8, ptr %12, i64 800
  %14 = load ptr, ptr %13, align 8
  %15 = getelementptr inbounds i8, ptr %14, i64 24
  %16 = load ptr, ptr %15, align 8
  %17 = getelementptr inbounds i8, ptr %14, i64 32
  %18 = load ptr, ptr %17, align 8
  %19 = getelementptr inbounds i8, ptr %14, i64 40
  %20 = load ptr, ptr %19, align 8
  %21 = getelementptr inbounds i8, ptr %14, i64 8
  %22 = load i64, ptr %21, align 8
  %23 = tail call noundef ptr @_ZNK6Symbol11as_C_stringEv(ptr noundef nonnull align 4 dereferenceable(8) %2) #12
  %24 = tail call noundef ptr @_ZNK15ClassLoaderData18loader_name_and_idEv(ptr noundef nonnull align 8 dereferenceable(160) %1) #12
  tail call void (ptr, ...) @_ZN13LogTargetImplILN8LogLevel4typeE3ELN6LogTag4typeE16ELS3_75ELS3_24ELS3_0ELS3_0ELS3_0EE5printEPKcz(ptr noundef nonnull @.str.11, ptr noundef %23, ptr noundef %24)
  %25 = load ptr, ptr %16, align 8
  %.not.i.i.i.i = icmp eq ptr %25, null
  br i1 %.not.i.i.i.i, label %27, label %26

26:                                               ; preds = %10
  tail call void @_ZN5Arena17set_size_in_bytesEm(ptr noundef nonnull align 8 dereferenceable(48) %14, i64 noundef %22) #12
  tail call void @_ZN5Chunk9next_chopEPS_(ptr noundef nonnull %16) #12
  br label %27

27:                                               ; preds = %26, %10
  %28 = load ptr, ptr %17, align 8
  %.not8.i.i.i.i = icmp eq ptr %28, %18
  br i1 %.not8.i.i.i.i, label %.critedge, label %29

29:                                               ; preds = %27
  store ptr %16, ptr %15, align 8
  store ptr %18, ptr %17, align 8
  store ptr %20, ptr %19, align 8
  br label %.critedge

30:                                               ; preds = %5
  store ptr %0, ptr %4, align 8
  %31 = load volatile ptr, ptr getelementptr inbounds (i8, ptr @_ZN16LogTagSetMappingILN6LogTag4typeE16ELS1_75ELS1_24ELS1_0ELS1_0ELS1_0EE7_tagsetE, i64 64), align 8
  %.not33 = icmp eq ptr %31, null
  br i1 %.not33, label %.critedge, label %32

32:                                               ; preds = %30
  %33 = tail call align 8 ptr @llvm.threadlocal.address.p0(ptr align 8 @_ZN6Thread12_thr_currentE)
  %34 = load ptr, ptr %33, align 8
  %35 = getelementptr inbounds i8, ptr %34, i64 800
  %36 = load ptr, ptr %35, align 8
  %37 = getelementptr inbounds i8, ptr %36, i64 24
  %38 = load ptr, ptr %37, align 8
  %39 = getelementptr inbounds i8, ptr %36, i64 32
  %40 = load ptr, ptr %39, align 8
  %41 = getelementptr inbounds i8, ptr %36, i64 40
  %42 = load ptr, ptr %41, align 8
  %43 = getelementptr inbounds i8, ptr %36, i64 8
  %44 = load i64, ptr %43, align 8
  %45 = tail call noundef ptr @_ZNK6Symbol11as_C_stringEv(ptr noundef nonnull align 4 dereferenceable(8) %2) #12
  %46 = tail call noundef ptr @_ZNK15ClassLoaderData18loader_name_and_idEv(ptr noundef nonnull align 8 dereferenceable(160) %1) #12
  tail call void (ptr, ...) @_ZN13LogTargetImplILN8LogLevel4typeE3ELN6LogTag4typeE16ELS3_75ELS3_24ELS3_0ELS3_0ELS3_0EE5printEPKcz(ptr noundef nonnull @.str.12, ptr noundef %45, ptr noundef %46)
  %47 = load ptr, ptr %38, align 8
  %.not.i.i.i.i18 = icmp eq ptr %47, null
  br i1 %.not.i.i.i.i18, label %49, label %48

48:                                               ; preds = %32
  tail call void @_ZN5Arena17set_size_in_bytesEm(ptr noundef nonnull align 8 dereferenceable(48) %36, i64 noundef %44) #12
  tail call void @_ZN5Chunk9next_chopEPS_(ptr noundef nonnull %38) #12
  br label %49

49:                                               ; preds = %48, %32
  %50 = load ptr, ptr %39, align 8
  %.not8.i.i.i.i19 = icmp eq ptr %50, %40
  br i1 %.not8.i.i.i.i19, label %.critedge, label %51

51:                                               ; preds = %49
  store ptr %38, ptr %37, align 8
  store ptr %40, ptr %39, align 8
  store ptr %42, ptr %41, align 8
  br label %.critedge

.critedge:                                        ; preds = %51, %49, %7, %29, %27, %30, %3, %8
  %.0 = phi i1 [ false, %8 ], [ true, %3 ], [ true, %30 ], [ false, %27 ], [ false, %29 ], [ true, %7 ], [ true, %49 ], [ true, %51 ]
  ret i1 %.0
}